target datalayout = "e-m:e-p270:32:32-p271:32:32-p272:64:64-i64:64-i128:128-f80:128-n8:16:32:64-S128"
target triple = "x86_64-pc-linux-gnu"

%struct.st_hash_type = type { ptr, ptr }
%struct.st_table = type { i8, i8, i8, i32, ptr, i64, ptr, i64, i64, ptr }

; Function Attrs: inlinehint nounwind sspstrong uwtable
define internal i64 @do_hash(i64 noundef %0, ptr noundef %1) #3 {
  %3 = alloca i64, align 8
  %4 = alloca ptr, align 8
  %5 = alloca i64, align 8
  store i64 %0, ptr %3, align 8, !tbaa !14
  store ptr %1, ptr %4, align 8, !tbaa !7
  call void @llvm.lifetime.start.p0(i64 8, ptr %5) #23
  %6 = load ptr, ptr %4, align 8, !tbaa !7
  %7 = getelementptr inbounds nuw %struct.st_table, ptr %6, i32 0, i32 4
  %8 = load ptr, ptr %7, align 8, !tbaa !18
  %9 = getelementptr inbounds nuw %struct.st_hash_type, ptr %8, i32 0, i32 1
  %10 = load ptr, ptr %9, align 8, !tbaa !38
  %11 = load i64, ptr %3, align 8, !tbaa !14
  %12 = call i64 %10(i64 noundef %11)
  store i64 %12, ptr %5, align 8, !tbaa !14
  %13 = load i64, ptr %5, align 8, !tbaa !14
  %14 = icmp eq i64 %13, -1
  br i1 %14, label %15, label %16

15:                                               ; preds = %2
  br label %18

16:                                               ; preds = %2
  %17 = load i64, ptr %5, align 8, !tbaa !14
  br label %18

18:                                               ; preds = %16, %15
  %19 = phi i64 [ 0, %15 ], [ %17, %16 ]
  call void @llvm.lifetime.end.p0(i64 8, ptr %5) #23
  ret i64 %19
}

; Function Attrs: nounwind sspstrong uwtable
define dso_local void @rb_st_add_direct(ptr noundef %0, i64 noundef %1, i64 noundef %2) #0 {
  %4 = alloca ptr, align 8
  %5 = alloca i64, align 8
  %6 = alloca i64, align 8
  %7 = alloca i64, align 8
  store ptr %0, ptr %4, align 8, !tbaa !7
  store i64 %1, ptr %5, align 8, !tbaa !14
  store i64 %2, ptr %6, align 8, !tbaa !14
  call void @llvm.lifetime.start.p0(i64 8, ptr %7) #23
  %8 = load i64, ptr %5, align 8, !tbaa !14
  %9 = load ptr, ptr %4, align 8, !tbaa !7
  %10 = call i64 @do_hash(i64 noundef %8, ptr noundef %9)
  store i64 %10, ptr %7, align 8, !tbaa !14
  %11 = load ptr, ptr %4, align 8, !tbaa !7
  %12 = load i64, ptr %5, align 8, !tbaa !14
  %13 = load i64, ptr %6, align 8, !tbaa !14
  %14 = load i64, ptr %7, align 8, !tbaa !14
  call void @st_add_direct_with_hash(ptr noundef %11, i64 noundef %12, i64 noundef %13, i64 noundef %14)
  call void @llvm.lifetime.end.p0(i64 8, ptr %7) #23
  ret void
}